; Function Attrs: nofree norecurse nosync nounwind memory(readwrite, inaccessiblemem: none) uwtable
define void @Ppmd7_Update1_0(ptr noundef captures(none) initializes((32, 36)) %0) local_unnamed_addr #6 {
  %2 = getelementptr inbounds nuw i8, ptr %0, i64 16
  %3 = load ptr, ptr %2, align 8, !tbaa !37
  %4 = getelementptr inbounds nuw i8, ptr %3, i64 1
  %5 = load i8, ptr %4, align 1, !tbaa !42
  %6 = zext i8 %5 to i32
  %7 = shl nuw nsw i32 %6, 1
  %8 = load ptr, ptr %0, align 8, !tbaa !32
  %9 = getelementptr inbounds nuw i8, ptr %8, i64 2
  %10 = load i16, ptr %9, align 2, !tbaa !36
  %11 = zext i16 %10 to i32
  %12 = icmp samesign ugt i32 %7, %11
  %13 = zext i1 %12 to i32
  %14 = getelementptr inbounds nuw i8, ptr %0, i64 32
  store i32 %13, ptr %14, align 8, !tbaa !29
  %15 = getelementptr inbounds nuw i8, ptr %0, i64 44
  %16 = load i32, ptr %15, align 4, !tbaa !28
  %17 = add i32 %16, %13
  store i32 %17, ptr %15, align 4, !tbaa !28
  %18 = add i16 %10, 4
  store i16 %18, ptr %9, align 2, !tbaa !36
  %19 = add i8 %5, 4
  store i8 %19, ptr %4, align 1, !tbaa !42
  %20 = icmp ugt i8 %19, 124
  br i1 %20, label %21, label %22

21:                                               ; preds = %1
  tail call fastcc void @Rescale(ptr noundef nonnull %0)
  %.pre = load ptr, ptr %2, align 8, !tbaa !37
  br label %22

22:                                               ; preds = %21, %1
  %23 = phi ptr [ %.pre, %21 ], [ %3, %1 ]
  %24 = getelementptr inbounds nuw i8, ptr %0, i64 64
  %25 = load ptr, ptr %24, align 8, !tbaa !3
  %26 = getelementptr inbounds nuw i8, ptr %23, i64 2
  %27 = load i32, ptr %26, align 2
  %28 = zext i32 %27 to i64
  %29 = getelementptr inbounds nuw i8, ptr %25, i64 %28
  %30 = getelementptr inbounds nuw i8, ptr %0, i64 24
  %31 = load i32, ptr %30, align 8, !tbaa !26
  %32 = icmp eq i32 %31, 0
  br i1 %32, label %33, label %39

33:                                               ; preds = %22
  %34 = getelementptr inbounds nuw i8, ptr %0, i64 88
  %35 = load ptr, ptr %34, align 8, !tbaa !23
  %36 = icmp ugt ptr %29, %35
  br i1 %36, label %37, label %39

37:                                               ; preds = %33
  %38 = getelementptr inbounds nuw i8, ptr %0, i64 8
  store ptr %29, ptr %38, align 8, !tbaa !31
  store ptr %29, ptr %0, align 8, !tbaa !32
  br label %NextContext.exit

39:                                               ; preds = %33, %22
  tail call fastcc void @UpdateModel(ptr noundef nonnull %0)
  br label %NextContext.exit

NextContext.exit:                                 ; preds = %37, %39
  ret void
}